; Function Attrs: mustprogress uwtable
define hidden void @_ZN7grobner10push_scopeEv(ptr noundef nonnull align 8 dereferenceable(228) %this) local_unnamed_addr #3 align 2 {
entry:
  %m_scopes = getelementptr inbounds i8, ptr %this, i64 184
  %0 = load ptr, ptr %m_scopes, align 8
  %cmp.i = icmp eq ptr %0, null
  br i1 %cmp.i, label %if.then.i, label %lor.lhs.false.i

lor.lhs.false.i:                                  ; preds = %entry
  %arrayidx.i = getelementptr inbounds i8, ptr %0, i64 -4
  %1 = load i32, ptr %arrayidx.i, align 4
  %arrayidx4.i = getelementptr inbounds i8, ptr %0, i64 -8
  %2 = load i32, ptr %arrayidx4.i, align 4
  %cmp5.i = icmp eq i32 %1, %2
  br i1 %cmp5.i, label %if.then.i, label %_ZN6vectorIN7grobner5scopeELb0EjE9push_backEOS1_.exit

if.then.i:                                        ; preds = %lor.lhs.false.i, %entry
  tail call void @_ZN6vectorIN7grobner5scopeELb0EjE13expand_vectorEv(ptr noundef nonnull align 8 dereferenceable(8) %m_scopes)
  %.pre.i = load ptr, ptr %m_scopes, align 8
  %arrayidx8.phi.trans.insert.i = getelementptr inbounds i8, ptr %.pre.i, i64 -4
  %.pre1.i = load i32, ptr %arrayidx8.phi.trans.insert.i, align 4
  br label %_ZN6vectorIN7grobner5scopeELb0EjE9push_backEOS1_.exit

_ZN6vectorIN7grobner5scopeELb0EjE9push_backEOS1_.exit: ; preds = %lor.lhs.false.i, %if.then.i
  %3 = phi i32 [ %.pre1.i, %if.then.i ], [ %1, %lor.lhs.false.i ]
  %4 = phi ptr [ %.pre.i, %if.then.i ], [ %0, %lor.lhs.false.i ]
  %idx.ext.i = zext i32 %3 to i64
  %add.ptr.i = getelementptr inbounds %"struct.grobner::scope", ptr %4, i64 %idx.ext.i
  store i64 0, ptr %add.ptr.i, align 4
  %5 = load ptr, ptr %m_scopes, align 8
  %arrayidx10.i = getelementptr inbounds i8, ptr %5, i64 -4
  %6 = load i32, ptr %arrayidx10.i, align 4
  %inc.i = add i32 %6, 1
  store i32 %inc.i, ptr %arrayidx10.i, align 4
  %7 = load ptr, ptr %m_scopes, align 8
  %cmp.i.i = icmp eq ptr %7, null
  br i1 %cmp.i.i, label %_ZN6vectorIN7grobner5scopeELb0EjE4backEv.exit, label %if.end.i.i

if.end.i.i:                                       ; preds = %_ZN6vectorIN7grobner5scopeELb0EjE9push_backEOS1_.exit
  %arrayidx.i.i = getelementptr inbounds i8, ptr %7, i64 -4
  %8 = load i32, ptr %arrayidx.i.i, align 4
  %9 = add i32 %8, -1
  %10 = zext i32 %9 to i64
  br label %_ZN6vectorIN7grobner5scopeELb0EjE4backEv.exit

_ZN6vectorIN7grobner5scopeELb0EjE4backEv.exit:    ; preds = %_ZN6vectorIN7grobner5scopeELb0EjE9push_backEOS1_.exit, %if.end.i.i
  %retval.0.i.i = phi i64 [ %10, %if.end.i.i ], [ 4294967295, %_ZN6vectorIN7grobner5scopeELb0EjE9push_backEOS1_.exit ]
  %arrayidx.i1.i = getelementptr inbounds %"struct.grobner::scope", ptr %7, i64 %retval.0.i.i
  %m_equations_to_unfreeze = getelementptr inbounds i8, ptr %this, i64 152
  %11 = load ptr, ptr %m_equations_to_unfreeze, align 8
  %cmp.i2 = icmp eq ptr %11, null
  br i1 %cmp.i2, label %_ZNK6vectorIPN7grobner8equationELb0EjE4sizeEv.exit, label %if.end.i

if.end.i:                                         ; preds = %_ZN6vectorIN7grobner5scopeELb0EjE4backEv.exit
  %arrayidx.i3 = getelementptr inbounds i8, ptr %11, i64 -4
  %12 = load i32, ptr %arrayidx.i3, align 4
  br label %_ZNK6vectorIPN7grobner8equationELb0EjE4sizeEv.exit

_ZNK6vectorIPN7grobner8equationELb0EjE4sizeEv.exit: ; preds = %_ZN6vectorIN7grobner5scopeELb0EjE4backEv.exit, %if.end.i
  %retval.0.i = phi i32 [ %12, %if.end.i ], [ 0, %_ZN6vectorIN7grobner5scopeELb0EjE4backEv.exit ]
  store i32 %retval.0.i, ptr %arrayidx.i1.i, align 4
  %m_equations_to_delete = getelementptr inbounds i8, ptr %this, i64 160
  %13 = load ptr, ptr %m_equations_to_delete, align 8
  %cmp.i4 = icmp eq ptr %13, null
  br i1 %cmp.i4, label %_ZNK6vectorIPN7grobner8equationELb0EjE4sizeEv.exit8, label %if.end.i5

if.end.i5:                                        ; preds = %_ZNK6vectorIPN7grobner8equationELb0EjE4sizeEv.exit
  %arrayidx.i6 = getelementptr inbounds i8, ptr %13, i64 -4
  %14 = load i32, ptr %arrayidx.i6, align 4
  br label %_ZNK6vectorIPN7grobner8equationELb0EjE4sizeEv.exit8

_ZNK6vectorIPN7grobner8equationELb0EjE4sizeEv.exit8: ; preds = %_ZNK6vectorIPN7grobner8equationELb0EjE4sizeEv.exit, %if.end.i5
  %retval.0.i7 = phi i32 [ %14, %if.end.i5 ], [ 0, %_ZNK6vectorIPN7grobner8equationELb0EjE4sizeEv.exit ]
  %m_equations_to_delete_lim = getelementptr inbounds i8, ptr %arrayidx.i1.i, i64 4
  store i32 %retval.0.i7, ptr %m_equations_to_delete_lim, align 4
  ret void
}